target datalayout = "e-m:e-p270:32:32-p271:32:32-p272:64:64-i64:64-i128:128-f80:128-n8:16:32:64-S128"
target triple = "x86_64-pc-linux-gnu"

%struct.Aes = type { [60 x i32], i32, i32, [8 x i8], [4 x i32], [4 x i32], [2 x i32], i32, [4 x i8], %struct.Gcm, ptr, [8 x i8] }
%struct.Gcm = type { [16 x i8], [32 x [16 x i8]] }

; Function Attrs: nounwind uwtable
define i32 @wc_AesInit(ptr noundef %0, ptr noundef %1, i32 noundef %2) #0 {
  %4 = alloca i32, align 4
  %5 = alloca ptr, align 8
  %6 = alloca ptr, align 8
  %7 = alloca i32, align 4
  %8 = alloca i32, align 4
  %9 = alloca i32, align 4
  store ptr %0, ptr %5, align 8, !tbaa !3
  store ptr %1, ptr %6, align 8, !tbaa !18
  store i32 %2, ptr %7, align 4, !tbaa !10
  call void @llvm.lifetime.start.p0(i64 4, ptr %8) #6
  store i32 0, ptr %8, align 4, !tbaa !10
  %10 = load ptr, ptr %5, align 8, !tbaa !3
  %11 = icmp eq ptr %10, null
  br i1 %11, label %12, label %13

12:                                               ; preds = %3
  store i32 -173, ptr %4, align 4
  store i32 1, ptr %9, align 4
  br label %19

13:                                               ; preds = %3
  %14 = load ptr, ptr %5, align 8, !tbaa !3
  call void @llvm.memset.p0.i64(ptr align 16 %14, i8 0, i64 848, i1 false)
  %15 = load ptr, ptr %6, align 8, !tbaa !18
  %16 = load ptr, ptr %5, align 8, !tbaa !3
  %17 = getelementptr inbounds nuw %struct.Aes, ptr %16, i32 0, i32 10
  store ptr %15, ptr %17, align 16, !tbaa !43
  %18 = load i32, ptr %8, align 4, !tbaa !10
  store i32 %18, ptr %4, align 4
  store i32 1, ptr %9, align 4
  br label %19

19:                                               ; preds = %13, %12
  call void @llvm.lifetime.end.p0(i64 4, ptr %8) #6
  %20 = load i32, ptr %4, align 4
  ret i32 %20
}

; Function Attrs: nounwind uwtable
define ptr @wc_AesNew(ptr noundef %0, i32 noundef %1, ptr noundef %2) #0 {
  %4 = alloca ptr, align 8
  %5 = alloca i32, align 4
  %6 = alloca ptr, align 8
  %7 = alloca i32, align 4
  %8 = alloca ptr, align 8
  %9 = alloca ptr, align 8
  store ptr %0, ptr %4, align 8, !tbaa !18
  store i32 %1, ptr %5, align 4, !tbaa !10
  store ptr %2, ptr %6, align 8, !tbaa !46
  call void @llvm.lifetime.start.p0(i64 4, ptr %7) #6
  call void @llvm.lifetime.start.p0(i64 8, ptr %8) #6
  %10 = call ptr @wolfSSL_Malloc(i64 noundef 848)
  store ptr %10, ptr %8, align 8, !tbaa !3
  %11 = load ptr, ptr %8, align 8, !tbaa !3
  %12 = icmp eq ptr %11, null
  br i1 %12, label %13, label %14

13:                                               ; preds = %3
  store i32 -125, ptr %7, align 4, !tbaa !10
  br label %32

14:                                               ; preds = %3
  %15 = load ptr, ptr %8, align 8, !tbaa !3
  %16 = load ptr, ptr %4, align 8, !tbaa !18
  %17 = load i32, ptr %5, align 4, !tbaa !10
  %18 = call i32 @wc_AesInit(ptr noundef %15, ptr noundef %16, i32 noundef %17)
  store i32 %18, ptr %7, align 4, !tbaa !10
  %19 = load i32, ptr %7, align 4, !tbaa !10
  %20 = icmp ne i32 %19, 0
  br i1 %20, label %21, label %31

21:                                               ; preds = %14
  br label %22

22:                                               ; preds = %21
  call void @llvm.lifetime.start.p0(i64 8, ptr %9) #6
  %23 = load ptr, ptr %8, align 8, !tbaa !3
  store ptr %23, ptr %9, align 8, !tbaa !18
  %24 = load ptr, ptr %9, align 8, !tbaa !18
  %25 = icmp ne ptr %24, null
  br i1 %25, label %26, label %28

26:                                               ; preds = %22
  %27 = load ptr, ptr %9, align 8, !tbaa !18
  call void @wolfSSL_Free(ptr noundef %27)
  br label %28

28:                                               ; preds = %26, %22
  call void @llvm.lifetime.end.p0(i64 8, ptr %9) #6
  br label %29

29:                                               ; preds = %28
  br label %30

30:                                               ; preds = %29
  store ptr null, ptr %8, align 8, !tbaa !3
  br label %31

31:                                               ; preds = %30, %14
  br label %32

32:                                               ; preds = %31, %13
  %33 = load ptr, ptr %6, align 8, !tbaa !46
  %34 = icmp ne ptr %33, null
  br i1 %34, label %35, label %38

35:                                               ; preds = %32
  %36 = load i32, ptr %7, align 4, !tbaa !10
  %37 = load ptr, ptr %6, align 8, !tbaa !46
  store i32 %36, ptr %37, align 4, !tbaa !10
  br label %38

38:                                               ; preds = %35, %32
  %39 = load ptr, ptr %8, align 8, !tbaa !3
  call void @llvm.lifetime.end.p0(i64 8, ptr %8) #6
  call void @llvm.lifetime.end.p0(i64 4, ptr %7) #6
  ret ptr %39
}