; Function Attrs: nounwind uwtable
define ptr @wc_AesNew(ptr noundef %0, i32 noundef %1, ptr noundef writeonly captures(address_is_null) %2) local_unnamed_addr #7 {
  %4 = tail call ptr @wolfSSL_Malloc(i64 noundef 848) #12
  %5 = icmp eq ptr %4, null
  br i1 %5, label %7, label %wc_AesInit.exit

wc_AesInit.exit:                                  ; preds = %3
  tail call void @llvm.memset.p0.i64(ptr noundef nonnull align 16 dereferenceable(848) %4, i8 0, i64 848, i1 false)
  %6 = getelementptr inbounds nuw i8, ptr %4, i64 832
  store ptr %0, ptr %6, align 16, !tbaa !45
  br label %7

7:                                                ; preds = %wc_AesInit.exit, %3
  %.0 = phi i32 [ 0, %wc_AesInit.exit ], [ -125, %3 ]
  %.not16 = icmp eq ptr %2, null
  br i1 %.not16, label %9, label %8

8:                                                ; preds = %7
  store i32 %.0, ptr %2, align 4, !tbaa !11
  br label %9

9:                                                ; preds = %8, %7
  ret ptr %4
}